target datalayout = "e-m:e-p270:32:32-p271:32:32-p272:64:64-i64:64-i128:128-f80:128-n8:16:32:64-S128"
target triple = "x86_64-pc-linux-gnu"

%"class.std::__cxx11::basic_string" = type { %"struct.std::__cxx11::basic_string<char>::_Alloc_hider", i64, %union.anon }
%"struct.std::__cxx11::basic_string<char>::_Alloc_hider" = type { ptr }
%union.anon = type { i64, [8 x i8] }
%"class.std::unique_ptr.34" = type { %"struct.std::__uniq_ptr_data.35" }
%"struct.std::__uniq_ptr_data.35" = type { %"class.std::__uniq_ptr_impl.36" }
%"class.std::__uniq_ptr_impl.36" = type { %"class.std::tuple.37" }
%"class.std::tuple.37" = type { %"struct.std::_Tuple_impl.38" }
%"struct.std::_Tuple_impl.38" = type { %"struct.std::_Head_base.41" }
%"struct.std::_Head_base.41" = type { ptr }
%"class.osgeo::proj::DiskChunkCache" = type { ptr, %"class.std::__cxx11::basic_string", ptr, %"class.std::unique_ptr.34" }

@.str.3 = private unnamed_addr constant [3 x i8] c"%s\00", align 1
@.str.9 = private unnamed_addr constant [28 x i8] c"Creating cache DB structure\00", align 1
@_ZN5osgeo4projL22cache_db_structure_sqlE = internal global ptr @.str.83, align 8

; Function Attrs: mustprogress uwtable
define hidden noundef zeroext i1 @_ZN5osgeo4proj14DiskChunkCache17createDBStructureEv(ptr noundef nonnull align 8 dereferenceable(56) %0) #5 align 2 {
  %2 = alloca i1, align 1
  %3 = alloca ptr, align 8
  store ptr %0, ptr %3, align 8, !tbaa !49
  %4 = load ptr, ptr %3, align 8
  %5 = getelementptr inbounds nuw %"class.osgeo::proj::DiskChunkCache", ptr %4, i32 0, i32 0
  %6 = load ptr, ptr %5, align 8, !tbaa !51
  call void (ptr, i32, ptr, ...) @_Z6pj_logP6pj_ctxiPKcz(ptr noundef %6, i32 noundef 3, ptr noundef @.str.9)
  %7 = getelementptr inbounds nuw %"class.osgeo::proj::DiskChunkCache", ptr %4, i32 0, i32 2
  %8 = load ptr, ptr %7, align 8, !tbaa !61
  %9 = load ptr, ptr @_ZN5osgeo4projL22cache_db_structure_sqlE, align 8, !tbaa !63
  %10 = call i32 @sqlite3_exec(ptr noundef %8, ptr noundef %9, ptr noundef null, ptr noundef null, ptr noundef null)
  %11 = icmp ne i32 %10, 0
  br i1 %11, label %12, label %18

12:                                               ; preds = %1
  %13 = getelementptr inbounds nuw %"class.osgeo::proj::DiskChunkCache", ptr %4, i32 0, i32 0
  %14 = load ptr, ptr %13, align 8, !tbaa !51
  %15 = getelementptr inbounds nuw %"class.osgeo::proj::DiskChunkCache", ptr %4, i32 0, i32 2
  %16 = load ptr, ptr %15, align 8, !tbaa !61
  %17 = call ptr @sqlite3_errmsg(ptr noundef %16)
  call void (ptr, i32, ptr, ...) @_Z6pj_logP6pj_ctxiPKcz(ptr noundef %14, i32 noundef 1, ptr noundef @.str.3, ptr noundef %17)
  store i1 false, ptr %2, align 1
  br label %19

18:                                               ; preds = %1
  store i1 true, ptr %2, align 1
  br label %19

19:                                               ; preds = %18, %12
  %20 = load i1, ptr %2, align 1
  ret i1 %20
}