; Function Attrs: mustprogress uwtable
define hidden noundef zeroext i1 @_ZN5osgeo4proj14DiskChunkCache17createDBStructureEv(ptr noundef nonnull readonly align 8 captures(none) dereferenceable(56) %0) local_unnamed_addr #3 align 2 {
  %2 = load ptr, ptr %0, align 8, !tbaa !58
  tail call void (ptr, i32, ptr, ...) @_Z6pj_logP6pj_ctxiPKcz(ptr noundef %2, i32 noundef 3, ptr noundef nonnull @.str.9)
  %3 = getelementptr inbounds nuw i8, ptr %0, i64 40
  %4 = load ptr, ptr %3, align 8, !tbaa !77
  %5 = tail call i32 @sqlite3_exec(ptr noundef %4, ptr noundef nonnull @.str.83, ptr noundef null, ptr noundef null, ptr noundef null)
  %.not = icmp eq i32 %5, 0
  br i1 %.not, label %10, label %6

6:                                                ; preds = %1
  %7 = load ptr, ptr %0, align 8, !tbaa !58
  %8 = load ptr, ptr %3, align 8, !tbaa !77
  %9 = tail call ptr @sqlite3_errmsg(ptr noundef %8)
  tail call void (ptr, i32, ptr, ...) @_Z6pj_logP6pj_ctxiPKcz(ptr noundef %7, i32 noundef 1, ptr noundef nonnull @.str.3, ptr noundef %9)
  br label %10

10:                                               ; preds = %1, %6
  ret i1 %.not
}